target datalayout = "e-m:e-p270:32:32-p271:32:32-p272:64:64-i64:64-i128:128-f80:128-n8:16:32:64-S128"
target triple = "x86_64-pc-linux-gnu"

; Function Attrs: nounwind uwtable
define internal void @vert_8x8_c(ptr noalias noundef %0, i64 noundef %1, ptr noundef %2, ptr noundef %3) #1 {
  %5 = alloca ptr, align 8
  %6 = alloca i64, align 8
  %7 = alloca ptr, align 8
  %8 = alloca ptr, align 8
  %9 = alloca ptr, align 8
  %10 = alloca ptr, align 8
  %11 = alloca i64, align 8
  %12 = alloca i32, align 4
  store ptr %0, ptr %5, align 8, !tbaa !10
  store i64 %1, ptr %6, align 8, !tbaa !12
  store ptr %2, ptr %7, align 8, !tbaa !10
  store ptr %3, ptr %8, align 8, !tbaa !10
  call void @llvm.lifetime.start.p0(i64 8, ptr %9) #10
  %13 = load ptr, ptr %5, align 8, !tbaa !10
  store ptr %13, ptr %9, align 8, !tbaa !10
  call void @llvm.lifetime.start.p0(i64 8, ptr %10) #10
  %14 = load ptr, ptr %8, align 8, !tbaa !10
  store ptr %14, ptr %10, align 8, !tbaa !10
  call void @llvm.lifetime.start.p0(i64 8, ptr %11) #10
  %15 = load ptr, ptr %10, align 8, !tbaa !10
  %16 = load i64, ptr %15, align 8, !tbaa !14
  store i64 %16, ptr %11, align 8, !tbaa !12
  call void @llvm.lifetime.start.p0(i64 4, ptr %12) #10
  %17 = load i64, ptr %6, align 8, !tbaa !12
  %18 = udiv i64 %17, 1
  store i64 %18, ptr %6, align 8, !tbaa !12
  store i32 0, ptr %12, align 4, !tbaa !15
  br label %19

19:                                               ; preds = %28, %4
  %20 = load i32, ptr %12, align 4, !tbaa !15
  %21 = icmp slt i32 %20, 8
  br i1 %21, label %22, label %31

22:                                               ; preds = %19
  %23 = load i64, ptr %11, align 8, !tbaa !12
  %24 = load ptr, ptr %9, align 8, !tbaa !10
  store i64 %23, ptr %24, align 8, !tbaa !14
  %25 = load i64, ptr %6, align 8, !tbaa !12
  %26 = load ptr, ptr %9, align 8, !tbaa !10
  %27 = getelementptr inbounds i8, ptr %26, i64 %25
  store ptr %27, ptr %9, align 8, !tbaa !10
  br label %28

28:                                               ; preds = %22
  %29 = load i32, ptr %12, align 4, !tbaa !15
  %30 = add nsw i32 %29, 1
  store i32 %30, ptr %12, align 4, !tbaa !15
  br label %19, !llvm.loop !19

31:                                               ; preds = %19
  call void @llvm.lifetime.end.p0(i64 4, ptr %12) #10
  call void @llvm.lifetime.end.p0(i64 8, ptr %11) #10
  call void @llvm.lifetime.end.p0(i64 8, ptr %10) #10
  call void @llvm.lifetime.end.p0(i64 8, ptr %9) #10
  ret void
}