; Function Attrs: nofree norecurse nosync nounwind memory(argmem: readwrite) uwtable
define internal void @vert_8x8_c(ptr noalias noundef writeonly captures(none) %0, i64 noundef %1, ptr readnone captures(none) %2, ptr noundef readonly captures(none) %3) #2 {
  %5 = load i64, ptr %3, align 8, !tbaa !8
  br label %6

6:                                                ; preds = %4, %6
  %.011 = phi i32 [ 0, %4 ], [ %8, %6 ]
  %.0910 = phi ptr [ %0, %4 ], [ %7, %6 ]
  store i64 %5, ptr %.0910, align 8, !tbaa !8
  %7 = getelementptr inbounds i8, ptr %.0910, i64 %1
  %8 = add nuw nsw i32 %.011, 1
  %exitcond.not = icmp eq i32 %8, 8
  br i1 %exitcond.not, label %9, label %6, !llvm.loop !11

9:                                                ; preds = %6
  ret void
}